; Function Attrs: mustprogress uwtable
define noundef ptr @_ZN16RBTestDataModule13getTestBundleEPKcR10UErrorCode(ptr nocapture noundef nonnull align 8 dereferenceable(76) %this, ptr noundef %bundleName, ptr noundef nonnull align 4 dereferenceable(4) %status) local_unnamed_addr #1 align 2 personality ptr @__gxx_personality_v0 {
entry:
  %ref.tmp = alloca %"class.icu_75::UnicodeString", align 8
  %ref.tmp8 = alloca %"class.icu_75::UnicodeString", align 8
  %agg.tmp = alloca %"class.icu_75::ConstChar16Ptr", align 8
  %ref.tmp9 = alloca %"class.icu_75::UnicodeString", align 8
  %0 = load i32, ptr %status, align 4
  %cmp.i = icmp sgt i32 %0, 0
  br i1 %cmp.i, label %return, label %if.then

if.then:                                          ; preds = %entry
  %fLog = getelementptr inbounds i8, ptr %this, i64 24
  %1 = load ptr, ptr %fLog, align 8
  %vtable = load ptr, ptr %1, align 8
  %vfn = getelementptr inbounds i8, ptr %vtable, i64 40
  %2 = load ptr, ptr %vfn, align 8
  %call2 = tail call noundef ptr %2(ptr noundef nonnull align 8 dereferenceable(8) %1, ptr noundef nonnull align 4 dereferenceable(4) %status)
  %call4 = tail call ptr @ures_openDirect_75(ptr noundef %call2, ptr noundef %bundleName, ptr noundef nonnull %status)
  %3 = load i32, ptr %status, align 4
  %cmp5.not = icmp eq i32 %3, 0
  br i1 %cmp5.not, label %return, label %if.then6

if.then6:                                         ; preds = %if.then
  %4 = load ptr, ptr %fLog, align 8
  store ptr @.str.12, ptr %agg.tmp, align 8
  invoke void @_ZN6icu_7513UnicodeStringC1EaNS_14ConstChar16PtrEi(ptr noundef nonnull align 8 dereferenceable(64) %ref.tmp8, i8 noundef signext 1, ptr noundef nonnull %agg.tmp, i32 noundef -1)
          to label %invoke.cont unwind label %lpad

invoke.cont:                                      ; preds = %if.then6
  invoke void @_ZN6icu_7513UnicodeStringC1EPKciNS0_10EInvariantE(ptr noundef nonnull align 8 dereferenceable(64) %ref.tmp9, ptr noundef %bundleName, i32 noundef -1, i32 noundef 0)
          to label %invoke.cont11 unwind label %lpad10

invoke.cont11:                                    ; preds = %invoke.cont
  invoke void @_ZN6icu_75plERKNS_13UnicodeStringES2_(ptr nonnull sret(%"class.icu_75::UnicodeString") align 8 %ref.tmp, ptr noundef nonnull align 8 dereferenceable(64) %ref.tmp8, ptr noundef nonnull align 8 dereferenceable(64) %ref.tmp9)
          to label %invoke.cont13 unwind label %lpad12

invoke.cont13:                                    ; preds = %invoke.cont11
  %vtable14 = load ptr, ptr %4, align 8
  %vfn15 = getelementptr inbounds i8, ptr %vtable14, i64 32
  %5 = load ptr, ptr %vfn15, align 8
  invoke void %5(ptr noundef nonnull align 8 dereferenceable(8) %4, ptr noundef nonnull align 8 dereferenceable(64) %ref.tmp)
          to label %invoke.cont17 unwind label %lpad16

invoke.cont17:                                    ; preds = %invoke.cont13
  call void @_ZN6icu_7513UnicodeStringD1Ev(ptr noundef nonnull align 8 dereferenceable(64) %ref.tmp) #20
  call void @_ZN6icu_7513UnicodeStringD1Ev(ptr noundef nonnull align 8 dereferenceable(64) %ref.tmp9) #20
  call void @_ZN6icu_7513UnicodeStringD1Ev(ptr noundef nonnull align 8 dereferenceable(64) %ref.tmp8) #20
  %6 = load ptr, ptr %agg.tmp, align 8
  call void asm sideeffect "", "rm,~{memory},~{dirflag},~{fpsr},~{flags}"(ptr %6) #20, !srcloc !4
  %fDataTestValid = getelementptr inbounds i8, ptr %this, i64 56
  store i8 0, ptr %fDataTestValid, align 8
  br label %return

lpad:                                             ; preds = %if.then6
  %7 = landingpad { ptr, i32 }
          cleanup
  br label %ehcleanup19

lpad10:                                           ; preds = %invoke.cont
  %8 = landingpad { ptr, i32 }
          cleanup
  br label %ehcleanup18

lpad12:                                           ; preds = %invoke.cont11
  %9 = landingpad { ptr, i32 }
          cleanup
  br label %ehcleanup

lpad16:                                           ; preds = %invoke.cont13
  %10 = landingpad { ptr, i32 }
          cleanup
  call void @_ZN6icu_7513UnicodeStringD1Ev(ptr noundef nonnull align 8 dereferenceable(64) %ref.tmp) #20
  br label %ehcleanup

ehcleanup:                                        ; preds = %lpad16, %lpad12
  %.pn = phi { ptr, i32 } [ %10, %lpad16 ], [ %9, %lpad12 ]
  call void @_ZN6icu_7513UnicodeStringD1Ev(ptr noundef nonnull align 8 dereferenceable(64) %ref.tmp9) #20
  br label %ehcleanup18

ehcleanup18:                                      ; preds = %ehcleanup, %lpad10
  %.pn.pn = phi { ptr, i32 } [ %.pn, %ehcleanup ], [ %8, %lpad10 ]
  call void @_ZN6icu_7513UnicodeStringD1Ev(ptr noundef nonnull align 8 dereferenceable(64) %ref.tmp8) #20
  br label %ehcleanup19

ehcleanup19:                                      ; preds = %ehcleanup18, %lpad
  %.pn.pn.pn = phi { ptr, i32 } [ %.pn.pn, %ehcleanup18 ], [ %7, %lpad ]
  %11 = load ptr, ptr %agg.tmp, align 8
  call void asm sideeffect "", "rm,~{memory},~{dirflag},~{fpsr},~{flags}"(ptr %11) #20, !srcloc !4
  resume { ptr, i32 } %.pn.pn.pn

return:                                           ; preds = %entry, %invoke.cont17, %if.then
  %retval.0 = phi ptr [ %call4, %if.then ], [ %call4, %invoke.cont17 ], [ null, %entry ]
  ret ptr %retval.0
}